; Function Attrs: noinline nounwind sspstrong uwtable
define hidden void @rb_vm_lock_enter_body_cr(ptr noundef %0, ptr noundef writeonly captures(none) %1) local_unnamed_addr #1 {
  %3 = load ptr, ptr @ruby_current_vm_ptr, align 8, !tbaa !7
  %4 = getelementptr i8, ptr %3, i64 88
  %.val = load ptr, ptr %4, align 8, !tbaa !12
  %5 = load ptr, ptr @ruby_single_main_ractor, align 8, !tbaa !37
  %.not.i.i.i = icmp eq ptr %5, null
  br i1 %.not.i.i.i, label %6, label %vm_locked.exit

6:                                                ; preds = %2
  %7 = tail call align 8 ptr @llvm.threadlocal.address.p0(ptr align 8 @ruby_current_ec)
  %8 = load ptr, ptr %7, align 8, !tbaa !38
  %9 = getelementptr i8, ptr %8, i64 48
  %.val.i.i.i = load ptr, ptr %9, align 8, !tbaa !40
  %.not.i.i.i.i = icmp eq ptr %.val.i.i.i, null
  br i1 %.not.i.i.i.i, label %vm_locked.exit, label %10

10:                                               ; preds = %6
  %11 = getelementptr inbounds nuw i8, ptr %.val.i.i.i, i64 24
  %12 = load ptr, ptr %11, align 8, !tbaa !48
  br label %vm_locked.exit

vm_locked.exit:                                   ; preds = %2, %6, %10
  %.0.i.i.i = phi ptr [ %5, %2 ], [ %12, %10 ], [ null, %6 ]
  %13 = icmp eq ptr %.val, %.0.i.i.i
  tail call fastcc void @vm_lock_enter(ptr noundef %0, ptr noundef nonnull %3, i1 noundef zeroext %13, i1 noundef zeroext false, ptr noundef %1)
  ret void
}